target datalayout = "e-m:e-p270:32:32-p271:32:32-p272:64:64-i64:64-i128:128-f80:128-n8:16:32:64-S128"
target triple = "x86_64-pc-linux-gnu"

%struct.rb_data_type_struct = type { ptr, %struct.anon.12, ptr, ptr, i64 }
%struct.anon.12 = type { ptr, ptr, ptr, ptr, [1 x ptr] }
%struct.rb_code_location_struct = type { %struct.rb_code_position_struct, %struct.rb_code_position_struct }
%struct.rb_code_position_struct = type { i32, i32 }
%struct.ASTNodeData = type { i64, ptr }
%struct.RNode = type { i64, %struct.rb_code_location_struct, i32 }

@rb_node_type = internal constant %struct.rb_data_type_struct { ptr @.str.24, %struct.anon.12 { ptr @node_gc_mark, ptr inttoptr (i64 -1 to ptr), ptr @node_memsize, ptr null, [1 x ptr] zeroinitializer }, ptr null, ptr null, i64 1 }, align 8
@.str.44 = private unnamed_addr constant [3 x i8] c"#<\00", align 1
@.str.45 = private unnamed_addr constant [17 x i8] c":%s@%d:%d-%d:%d>\00", align 1

; Function Attrs: inlinehint nounwind sspstrong uwtable
define internal i64 @rbimpl_strlen(ptr noundef nonnull %0) #5 {
  %2 = alloca ptr, align 8
  store ptr %0, ptr %2, align 8, !tbaa !117
  %3 = load ptr, ptr %2, align 8, !tbaa !117
  %4 = call i64 @strlen(ptr noundef %3) #18
  ret i64 %4
}

; Function Attrs: nounwind sspstrong uwtable
define internal ptr @node_type_to_str(ptr noundef %0) #0 {
  %2 = alloca ptr, align 8
  store ptr %0, ptr %2, align 8, !tbaa !109
  %3 = load ptr, ptr %2, align 8, !tbaa !109
  %4 = getelementptr inbounds nuw %struct.RNode, ptr %3, i32 0, i32 0
  %5 = load i64, ptr %4, align 8, !tbaa !129
  %6 = and i64 %5, 32512
  %7 = lshr i64 %6, 8
  %8 = trunc i64 %7 to i32
  %9 = call ptr @ruby_node_name(i32 noundef %8)
  %10 = getelementptr i8, ptr %9, i64 5
  ret ptr %10
}

; Function Attrs: inlinehint nounwind sspstrong uwtable
define internal i64 @rbimpl_str_new_cstr(ptr noundef nonnull %0) #5 {
  %2 = alloca ptr, align 8
  %3 = alloca i64, align 8
  store ptr %0, ptr %2, align 8, !tbaa !117
  call void @llvm.lifetime.start.p0(i64 8, ptr %3) #16
  %4 = load ptr, ptr %2, align 8, !tbaa !117
  %5 = call i64 @rbimpl_strlen(ptr noundef %4)
  store i64 %5, ptr %3, align 8, !tbaa !12
  %6 = load ptr, ptr %2, align 8, !tbaa !117
  %7 = load i64, ptr %3, align 8, !tbaa !12
  %8 = call i64 @rb_str_new_static(ptr noundef %6, i64 noundef %7)
  call void @llvm.lifetime.end.p0(i64 8, ptr %3) #16
  ret i64 %8
}

; Function Attrs: nounwind sspstrong uwtable
define internal i64 @ast_node_inspect(ptr noundef %0, i64 noundef %1) #0 {
  %3 = alloca ptr, align 8
  %4 = alloca i64, align 8
  %5 = alloca i64, align 8
  %6 = alloca i64, align 8
  %7 = alloca ptr, align 8
  store ptr %0, ptr %3, align 8, !tbaa !7
  store i64 %1, ptr %4, align 8, !tbaa !12
  call void @llvm.lifetime.start.p0(i64 8, ptr %5) #16
  call void @llvm.lifetime.start.p0(i64 8, ptr %6) #16
  call void @llvm.lifetime.start.p0(i64 8, ptr %7) #16
  %8 = load i64, ptr %4, align 8, !tbaa !12
  %9 = call ptr @rb_check_typeddata(i64 noundef %8, ptr noundef @rb_node_type)
  store ptr %9, ptr %7, align 8, !tbaa !44
  %10 = load i64, ptr %4, align 8, !tbaa !12
  %11 = call i64 @rb_obj_class(i64 noundef %10)
  %12 = call i64 @rb_class_path(i64 noundef %11)
  store i64 %12, ptr %6, align 8, !tbaa !12
  %13 = call i64 @rbimpl_str_new_cstr(ptr noundef @.str.44)
  store i64 %13, ptr %5, align 8, !tbaa !12
  %14 = load i64, ptr %5, align 8, !tbaa !12
  %15 = load i64, ptr %6, align 8, !tbaa !12
  %16 = call i64 @rb_str_append(i64 noundef %14, i64 noundef %15)
  %17 = load i64, ptr %5, align 8, !tbaa !12
  %18 = load ptr, ptr %7, align 8, !tbaa !44
  %19 = getelementptr inbounds nuw %struct.ASTNodeData, ptr %18, i32 0, i32 1
  %20 = load ptr, ptr %19, align 8, !tbaa !46
  %21 = call ptr @node_type_to_str(ptr noundef %20)
  %22 = load ptr, ptr %7, align 8, !tbaa !44
  %23 = getelementptr inbounds nuw %struct.ASTNodeData, ptr %22, i32 0, i32 1
  %24 = load ptr, ptr %23, align 8, !tbaa !46
  %25 = getelementptr inbounds nuw %struct.RNode, ptr %24, i32 0, i32 1
  %26 = getelementptr inbounds nuw %struct.rb_code_location_struct, ptr %25, i32 0, i32 0
  %27 = getelementptr inbounds nuw %struct.rb_code_position_struct, ptr %26, i32 0, i32 0
  %28 = load i32, ptr %27, align 8, !tbaa !49
  %29 = load ptr, ptr %7, align 8, !tbaa !44
  %30 = getelementptr inbounds nuw %struct.ASTNodeData, ptr %29, i32 0, i32 1
  %31 = load ptr, ptr %30, align 8, !tbaa !46
  %32 = getelementptr inbounds nuw %struct.RNode, ptr %31, i32 0, i32 1
  %33 = getelementptr inbounds nuw %struct.rb_code_location_struct, ptr %32, i32 0, i32 0
  %34 = getelementptr inbounds nuw %struct.rb_code_position_struct, ptr %33, i32 0, i32 1
  %35 = load i32, ptr %34, align 4, !tbaa !51
  %36 = load ptr, ptr %7, align 8, !tbaa !44
  %37 = getelementptr inbounds nuw %struct.ASTNodeData, ptr %36, i32 0, i32 1
  %38 = load ptr, ptr %37, align 8, !tbaa !46
  %39 = getelementptr inbounds nuw %struct.RNode, ptr %38, i32 0, i32 1
  %40 = getelementptr inbounds nuw %struct.rb_code_location_struct, ptr %39, i32 0, i32 1
  %41 = getelementptr inbounds nuw %struct.rb_code_position_struct, ptr %40, i32 0, i32 0
  %42 = load i32, ptr %41, align 8, !tbaa !52
  %43 = load ptr, ptr %7, align 8, !tbaa !44
  %44 = getelementptr inbounds nuw %struct.ASTNodeData, ptr %43, i32 0, i32 1
  %45 = load ptr, ptr %44, align 8, !tbaa !46
  %46 = getelementptr inbounds nuw %struct.RNode, ptr %45, i32 0, i32 1
  %47 = getelementptr inbounds nuw %struct.rb_code_location_struct, ptr %46, i32 0, i32 1
  %48 = getelementptr inbounds nuw %struct.rb_code_position_struct, ptr %47, i32 0, i32 1
  %49 = load i32, ptr %48, align 4, !tbaa !53
  %50 = call i64 (i64, ptr, ...) @rb_str_catf(i64 noundef %17, ptr noundef @.str.45, ptr noundef %21, i32 noundef %28, i32 noundef %35, i32 noundef %42, i32 noundef %49)
  %51 = load i64, ptr %5, align 8, !tbaa !12
  call void @llvm.lifetime.end.p0(i64 8, ptr %7) #16
  call void @llvm.lifetime.end.p0(i64 8, ptr %6) #16
  call void @llvm.lifetime.end.p0(i64 8, ptr %5) #16
  ret i64 %51
}