; Function Attrs: nounwind sspstrong uwtable
define internal noundef i64 @ast_node_inspect(ptr readnone captures(none) %0, i64 noundef %1) #0 {
  %3 = tail call ptr @rb_check_typeddata(i64 noundef %1, ptr noundef nonnull @rb_node_type) #11
  %4 = tail call i64 @rb_obj_class(i64 noundef %1) #11
  %5 = tail call i64 @rb_class_path(i64 noundef %4) #11
  %6 = tail call i64 @rb_str_new_static(ptr noundef nonnull @.str.44, i64 noundef 2) #11
  %7 = tail call i64 @rb_str_append(i64 noundef %6, i64 noundef %5) #11
  %8 = getelementptr inbounds nuw i8, ptr %3, i64 8
  %9 = load ptr, ptr %8, align 8, !tbaa !72
  %.val = load i64, ptr %9, align 8, !tbaa !73
  %10 = trunc i64 %.val to i32
  %11 = lshr i32 %10, 8
  %12 = and i32 %11, 127
  %13 = tail call ptr @ruby_node_name(i32 noundef %12) #11
  %14 = getelementptr i8, ptr %13, i64 5
  %15 = load ptr, ptr %8, align 8, !tbaa !72
  %16 = getelementptr inbounds nuw i8, ptr %15, i64 8
  %17 = load i32, ptr %16, align 8, !tbaa !75
  %18 = getelementptr inbounds nuw i8, ptr %15, i64 12
  %19 = load i32, ptr %18, align 4, !tbaa !76
  %20 = getelementptr inbounds nuw i8, ptr %15, i64 16
  %21 = load i32, ptr %20, align 8, !tbaa !77
  %22 = getelementptr inbounds nuw i8, ptr %15, i64 20
  %23 = load i32, ptr %22, align 4, !tbaa !78
  %24 = tail call i64 (i64, ptr, ...) @rb_str_catf(i64 noundef %6, ptr noundef nonnull @.str.45, ptr noundef %14, i32 noundef %17, i32 noundef %19, i32 noundef %21, i32 noundef %23) #11
  ret i64 %6
}